; Function Attrs: nofree norecurse nosync nounwind memory(argmem: readwrite) uwtable
define range(i32 0, 4) i32 @minTemp0_fast_iVar5(ptr noundef readonly captures(none) %0, i32 noundef %1, ptr noundef writeonly captures(none) %2) local_unnamed_addr #5 {
  %4 = icmp sgt i32 %1, 0
  br i1 %4, label %.lr.ph.preheader, label %._crit_edge

.lr.ph.preheader:                                 ; preds = %3
  %5 = shl nuw i32 %1, 1
  %6 = add i32 %5, -1
  %7 = zext i32 %6 to i64
  br label %.lr.ph

.lr.ph:                                           ; preds = %.lr.ph.preheader, %20
  %indvars.iv = phi i64 [ %7, %.lr.ph.preheader ], [ %indvars.iv.next, %20 ]
  %8 = getelementptr inbounds nuw i32, ptr %0, i64 %indvars.iv
  %9 = load i32, ptr %8, align 4, !tbaa !6
  %10 = zext i32 %9 to i64
  %11 = getelementptr i8, ptr %8, i64 -12
  %12 = load i32, ptr %11, align 4, !tbaa !6
  %13 = zext i32 %12 to i64
  %.0.i = tail call range(i32 -1, 2) i32 @llvm.ucmp.i32.i64(i64 %10, i64 %13)
  switch i32 %.0.i, label %17 [
    i32 0, label %20
    i32 -1, label %14
  ]

14:                                               ; preds = %.lr.ph
  %15 = trunc nuw i64 %indvars.iv to i32
  %16 = add nuw nsw i32 %15, 1
  br label %._crit_edge

17:                                               ; preds = %.lr.ph
  %18 = trunc nuw i64 %indvars.iv to i32
  %19 = add nuw nsw i32 %18, 1
  br label %._crit_edge

20:                                               ; preds = %.lr.ph
  %indvars.iv.next = add nsw i64 %indvars.iv, -4
  %21 = trunc nuw i64 %indvars.iv to i32
  %22 = icmp sgt i32 %21, 3
  br i1 %22, label %.lr.ph, label %._crit_edge, !llvm.loop !19

._crit_edge:                                      ; preds = %20, %3, %17, %14
  %.sink = phi i32 [ %19, %17 ], [ %16, %14 ], [ 0, %3 ], [ 0, %20 ]
  %.0 = phi i32 [ 3, %17 ], [ 0, %14 ], [ 0, %3 ], [ 0, %20 ]
  store i32 %.sink, ptr %2, align 4, !tbaa !6
  ret i32 %.0
}